target datalayout = "e-m:e-p270:32:32-p271:32:32-p272:64:64-i64:64-i128:128-f80:128-n8:16:32:64-S128"
target triple = "x86_64-pc-linux-gnu"

%"struct.duckdb::LogicalType" = type { i8, i8, %"class.duckdb::shared_ptr" }
%"class.duckdb::shared_ptr" = type { %"class.std::shared_ptr" }
%"class.std::shared_ptr" = type { %"class.std::__shared_ptr" }
%"class.std::__shared_ptr" = type { ptr, %"class.std::__shared_count" }
%"class.std::__shared_count" = type { ptr }
%"class.duckdb::DataChunk" = type { %"class.duckdb::vector.15", i64, i64, %"class.duckdb::vector.21" }
%"class.duckdb::vector.15" = type { %"class.std::vector.16" }
%"class.std::vector.16" = type { %"struct.std::_Vector_base.17" }
%"struct.std::_Vector_base.17" = type { %"struct.std::_Vector_base<duckdb::Vector, std::allocator<duckdb::Vector>>::_Vector_impl" }
%"struct.std::_Vector_base<duckdb::Vector, std::allocator<duckdb::Vector>>::_Vector_impl" = type { %"struct.std::_Vector_base<duckdb::Vector, std::allocator<duckdb::Vector>>::_Vector_impl_data" }
%"struct.std::_Vector_base<duckdb::Vector, std::allocator<duckdb::Vector>>::_Vector_impl_data" = type { ptr, ptr, ptr }
%"class.duckdb::vector.21" = type { %"class.std::vector.22" }
%"class.std::vector.22" = type { %"struct.std::_Vector_base.23" }
%"struct.std::_Vector_base.23" = type { %"struct.std::_Vector_base<duckdb::VectorCache, std::allocator<duckdb::VectorCache>>::_Vector_impl" }
%"struct.std::_Vector_base<duckdb::VectorCache, std::allocator<duckdb::VectorCache>>::_Vector_impl" = type { %"struct.std::_Vector_base<duckdb::VectorCache, std::allocator<duckdb::VectorCache>>::_Vector_impl_data" }
%"struct.std::_Vector_base<duckdb::VectorCache, std::allocator<duckdb::VectorCache>>::_Vector_impl_data" = type { ptr, ptr, ptr }
%"class.duckdb::Vector" = type { i8, %"struct.duckdb::LogicalType", ptr, %"struct.duckdb::ValidityMask", %"class.duckdb::shared_ptr.51", %"class.duckdb::shared_ptr.51" }
%"struct.duckdb::ValidityMask" = type { %"struct.duckdb::TemplatedValidityMask" }
%"struct.duckdb::TemplatedValidityMask" = type { ptr, %"class.duckdb::shared_ptr.47", i64 }
%"class.duckdb::shared_ptr.47" = type { %"class.std::shared_ptr.48" }
%"class.std::shared_ptr.48" = type { %"class.std::__shared_ptr.49" }
%"class.std::__shared_ptr.49" = type { ptr, %"class.std::__shared_count" }
%"class.duckdb::shared_ptr.51" = type { %"class.std::shared_ptr.52" }
%"class.std::shared_ptr.52" = type { %"class.std::__shared_ptr.53" }
%"class.std::__shared_ptr.53" = type { ptr, %"class.std::__shared_count" }

; Function Attrs: inlinehint mustprogress nounwind uwtable
define linkonce_odr noundef ptr @_ZN6duckdb14ConstantVector7GetDataERNS_6VectorE(ptr noundef nonnull align 8 dereferenceable(104) %0) #9 comdat align 2 {
  %2 = alloca ptr, align 8
  store ptr %0, ptr %2, align 8, !tbaa !19
  %3 = load ptr, ptr %2, align 8, !tbaa !19
  %4 = getelementptr inbounds nuw %"class.duckdb::Vector", ptr %3, i32 0, i32 2
  %5 = load ptr, ptr %4, align 8, !tbaa !336
  ret ptr %5
}

; Function Attrs: inlinehint mustprogress nounwind uwtable
define linkonce_odr noundef i64 @_ZNK6duckdb9DataChunk4sizeEv(ptr noundef nonnull align 8 dereferenceable(64) %0) #9 comdat align 2 {
  %2 = alloca ptr, align 8
  store ptr %0, ptr %2, align 8, !tbaa !15
  %3 = load ptr, ptr %2, align 8
  %4 = getelementptr inbounds nuw %"class.duckdb::DataChunk", ptr %3, i32 0, i32 1
  %5 = load i64, ptr %4, align 8, !tbaa !170
  ret i64 %5
}

; Function Attrs: inlinehint mustprogress uwtable
define linkonce_odr noundef ptr @_ZN6duckdb14ConstantVector7GetDataIhEEPT_RNS_6VectorE(ptr noundef nonnull align 8 dereferenceable(104) %0) #5 comdat align 2 {
  %2 = alloca ptr, align 8
  store ptr %0, ptr %2, align 8, !tbaa !19
  %3 = load ptr, ptr %2, align 8, !tbaa !19
  %4 = call noundef ptr @_ZN6duckdb14ConstantVector7GetDataERNS_6VectorE(ptr noundef nonnull align 8 dereferenceable(104) %3)
  ret ptr %4
}

; Function Attrs: mustprogress uwtable
define internal void @_ZN6duckdbL18UnionValueFunctionERNS_9DataChunkERNS_15ExpressionStateERNS_6VectorE(ptr noundef nonnull align 8 dereferenceable(64) %0, ptr noundef nonnull align 8 dereferenceable(176) %1, ptr noundef nonnull align 8 dereferenceable(104) %2) #0 {
  %4 = alloca ptr, align 8
  %5 = alloca ptr, align 8
  %6 = alloca ptr, align 8
  %7 = alloca ptr, align 8
  store ptr %0, ptr %4, align 8, !tbaa !15
  store ptr %1, ptr %5, align 8, !tbaa !17
  store ptr %2, ptr %6, align 8, !tbaa !19
  %8 = load ptr, ptr %6, align 8, !tbaa !19
  %9 = call noundef nonnull align 8 dereferenceable(104) ptr @_ZN6duckdb11UnionVector9GetMemberERNS_6VectorEm(ptr noundef nonnull align 8 dereferenceable(104) %8, i64 noundef 0)
  %10 = load ptr, ptr %4, align 8, !tbaa !15
  %11 = getelementptr inbounds nuw %"class.duckdb::DataChunk", ptr %10, i32 0, i32 0
  %12 = call noundef nonnull align 8 dereferenceable(104) ptr @_ZN6duckdb6vectorINS_6VectorELb1EEixEm(ptr noundef nonnull align 8 dereferenceable(24) %11, i64 noundef 0)
  call void @_ZN6duckdb6Vector9ReferenceERKS0_(ptr noundef nonnull align 8 dereferenceable(104) %9, ptr noundef nonnull align 8 dereferenceable(104) %12)
  call void @llvm.lifetime.start.p0(i64 8, ptr %7) #7
  %13 = load ptr, ptr %6, align 8, !tbaa !19
  %14 = call noundef nonnull align 8 dereferenceable(104) ptr @_ZN6duckdb11UnionVector7GetTagsERNS_6VectorE(ptr noundef nonnull align 8 dereferenceable(104) %13)
  store ptr %14, ptr %7, align 8, !tbaa !19
  %15 = load ptr, ptr %7, align 8, !tbaa !19
  call void @_ZN6duckdb6Vector13SetVectorTypeENS_10VectorTypeE(ptr noundef nonnull align 8 dereferenceable(104) %15, i8 noundef zeroext 2)
  %16 = load ptr, ptr %7, align 8, !tbaa !19
  %17 = call noundef ptr @_ZN6duckdb14ConstantVector7GetDataIhEEPT_RNS_6VectorE(ptr noundef nonnull align 8 dereferenceable(104) %16)
  %18 = getelementptr inbounds i8, ptr %17, i64 0
  store i8 0, ptr %18, align 1, !tbaa !129
  %19 = load ptr, ptr %4, align 8, !tbaa !15
  %20 = call noundef zeroext i1 @_ZNK6duckdb9DataChunk11AllConstantEv(ptr noundef nonnull align 8 dereferenceable(64) %19)
  br i1 %20, label %21, label %23

21:                                               ; preds = %3
  %22 = load ptr, ptr %6, align 8, !tbaa !19
  call void @_ZN6duckdb6Vector13SetVectorTypeENS_10VectorTypeE(ptr noundef nonnull align 8 dereferenceable(104) %22, i8 noundef zeroext 2)
  br label %23

23:                                               ; preds = %21, %3
  %24 = load ptr, ptr %6, align 8, !tbaa !19
  %25 = load ptr, ptr %4, align 8, !tbaa !15
  %26 = call noundef i64 @_ZNK6duckdb9DataChunk4sizeEv(ptr noundef nonnull align 8 dereferenceable(64) %25)
  call void @_ZN6duckdb6Vector6VerifyEm(ptr noundef nonnull align 8 dereferenceable(104) %24, i64 noundef %26)
  call void @llvm.lifetime.end.p0(i64 8, ptr %7) #7
  ret void
}