; Function Attrs: mustprogress uwtable
define internal void @_ZN6duckdbL18UnionValueFunctionERNS_9DataChunkERNS_15ExpressionStateERNS_6VectorE(ptr noundef nonnull align 8 dereferenceable(64) %0, ptr nonnull readnone align 8 captures(none) %1, ptr noundef nonnull align 8 dereferenceable(104) %2) #0 {
  %4 = tail call noundef nonnull align 8 dereferenceable(104) ptr @_ZN6duckdb11UnionVector9GetMemberERNS_6VectorEm(ptr noundef nonnull align 8 dereferenceable(104) %2, i64 noundef 0)
  %5 = tail call noundef nonnull align 8 dereferenceable(104) ptr @_ZN6duckdb6vectorINS_6VectorELb1EEixEm(ptr noundef nonnull align 8 dereferenceable(24) %0, i64 noundef 0)
  tail call void @_ZN6duckdb6Vector9ReferenceERKS0_(ptr noundef nonnull align 8 dereferenceable(104) %4, ptr noundef nonnull align 8 dereferenceable(104) %5)
  %6 = tail call noundef nonnull align 8 dereferenceable(104) ptr @_ZN6duckdb11UnionVector7GetTagsERNS_6VectorE(ptr noundef nonnull align 8 dereferenceable(104) %2)
  tail call void @_ZN6duckdb6Vector13SetVectorTypeENS_10VectorTypeE(ptr noundef nonnull align 8 dereferenceable(104) %6, i8 noundef zeroext 2)
  %7 = getelementptr inbounds nuw i8, ptr %6, i64 32
  %8 = load ptr, ptr %7, align 8, !tbaa !124
  store i8 0, ptr %8, align 1, !tbaa !78
  %9 = tail call noundef zeroext i1 @_ZNK6duckdb9DataChunk11AllConstantEv(ptr noundef nonnull align 8 dereferenceable(64) %0)
  br i1 %9, label %10, label %11

10:                                               ; preds = %3
  tail call void @_ZN6duckdb6Vector13SetVectorTypeENS_10VectorTypeE(ptr noundef nonnull align 8 dereferenceable(104) %2, i8 noundef zeroext 2)
  br label %11

11:                                               ; preds = %10, %3
  %12 = getelementptr inbounds nuw i8, ptr %0, i64 24
  %13 = load i64, ptr %12, align 8, !tbaa !56
  tail call void @_ZN6duckdb6Vector6VerifyEm(ptr noundef nonnull align 8 dereferenceable(104) %2, i64 noundef %13)
  ret void
}